target datalayout = "e-m:e-p270:32:32-p271:32:32-p272:64:64-i64:64-i128:128-f80:128-n8:16:32:64-S128"
target triple = "x86_64-pc-linux-gnu"

@kwsysBase64EncodeTable = internal constant [65 x i8] c"ABCDEFGHIJKLMNOPQRSTUVWXYZabcdefghijklmnopqrstuvwxyz0123456789+/\00", align 16

; Function Attrs: nounwind uwtable
define internal zeroext i8 @kwsysBase64EncodeChar(i32 noundef %0) #0 {
  %2 = alloca i32, align 4
  store i32 %0, ptr %2, align 4, !tbaa !10
  %3 = load i32, ptr %2, align 4, !tbaa !10
  %4 = trunc i32 %3 to i8
  %5 = zext i8 %4 to i64
  %6 = getelementptr inbounds nuw [65 x i8], ptr @kwsysBase64EncodeTable, i64 0, i64 %5
  %7 = load i8, ptr %6, align 1, !tbaa !9
  ret i8 %7
}

; Function Attrs: nounwind uwtable
define dso_local void @cmsysBase64_Encode3(ptr noundef %0, ptr noundef %1) #0 {
  %3 = alloca ptr, align 8
  %4 = alloca ptr, align 8
  store ptr %0, ptr %3, align 8, !tbaa !4
  store ptr %1, ptr %4, align 8, !tbaa !4
  %5 = load ptr, ptr %3, align 8, !tbaa !4
  %6 = getelementptr inbounds i8, ptr %5, i64 0
  %7 = load i8, ptr %6, align 1, !tbaa !9
  %8 = zext i8 %7 to i32
  %9 = ashr i32 %8, 2
  %10 = and i32 %9, 63
  %11 = call zeroext i8 @kwsysBase64EncodeChar(i32 noundef %10)
  %12 = load ptr, ptr %4, align 8, !tbaa !4
  %13 = getelementptr inbounds i8, ptr %12, i64 0
  store i8 %11, ptr %13, align 1, !tbaa !9
  %14 = load ptr, ptr %3, align 8, !tbaa !4
  %15 = getelementptr inbounds i8, ptr %14, i64 0
  %16 = load i8, ptr %15, align 1, !tbaa !9
  %17 = zext i8 %16 to i32
  %18 = shl i32 %17, 4
  %19 = and i32 %18, 48
  %20 = load ptr, ptr %3, align 8, !tbaa !4
  %21 = getelementptr inbounds i8, ptr %20, i64 1
  %22 = load i8, ptr %21, align 1, !tbaa !9
  %23 = zext i8 %22 to i32
  %24 = ashr i32 %23, 4
  %25 = and i32 %24, 15
  %26 = or i32 %19, %25
  %27 = call zeroext i8 @kwsysBase64EncodeChar(i32 noundef %26)
  %28 = load ptr, ptr %4, align 8, !tbaa !4
  %29 = getelementptr inbounds i8, ptr %28, i64 1
  store i8 %27, ptr %29, align 1, !tbaa !9
  %30 = load ptr, ptr %3, align 8, !tbaa !4
  %31 = getelementptr inbounds i8, ptr %30, i64 1
  %32 = load i8, ptr %31, align 1, !tbaa !9
  %33 = zext i8 %32 to i32
  %34 = shl i32 %33, 2
  %35 = and i32 %34, 60
  %36 = load ptr, ptr %3, align 8, !tbaa !4
  %37 = getelementptr inbounds i8, ptr %36, i64 2
  %38 = load i8, ptr %37, align 1, !tbaa !9
  %39 = zext i8 %38 to i32
  %40 = ashr i32 %39, 6
  %41 = and i32 %40, 3
  %42 = or i32 %35, %41
  %43 = call zeroext i8 @kwsysBase64EncodeChar(i32 noundef %42)
  %44 = load ptr, ptr %4, align 8, !tbaa !4
  %45 = getelementptr inbounds i8, ptr %44, i64 2
  store i8 %43, ptr %45, align 1, !tbaa !9
  %46 = load ptr, ptr %3, align 8, !tbaa !4
  %47 = getelementptr inbounds i8, ptr %46, i64 2
  %48 = load i8, ptr %47, align 1, !tbaa !9
  %49 = zext i8 %48 to i32
  %50 = and i32 %49, 63
  %51 = call zeroext i8 @kwsysBase64EncodeChar(i32 noundef %50)
  %52 = load ptr, ptr %4, align 8, !tbaa !4
  %53 = getelementptr inbounds i8, ptr %52, i64 3
  store i8 %51, ptr %53, align 1, !tbaa !9
  ret void
}