; Function Attrs: mustprogress nofree norecurse nosync nounwind willreturn memory(argmem: readwrite) uwtable
define dso_local void @cmsysBase64_Encode3(ptr noundef readonly captures(none) %0, ptr noundef writeonly captures(none) initializes((0, 4)) %1) local_unnamed_addr #0 {
  %3 = load i8, ptr %0, align 1, !tbaa !4
  %4 = lshr i8 %3, 2
  %5 = zext nneg i8 %4 to i64
  %6 = getelementptr inbounds nuw [65 x i8], ptr @kwsysBase64EncodeTable, i64 0, i64 %5
  %7 = load i8, ptr %6, align 1, !tbaa !4
  store i8 %7, ptr %1, align 1, !tbaa !4
  %8 = load i8, ptr %0, align 1, !tbaa !4
  %9 = zext i8 %8 to i64
  %10 = shl nuw nsw i64 %9, 4
  %11 = and i64 %10, 48
  %12 = getelementptr inbounds nuw i8, ptr %0, i64 1
  %13 = load i8, ptr %12, align 1, !tbaa !4
  %14 = lshr i8 %13, 4
  %15 = zext nneg i8 %14 to i64
  %16 = or disjoint i64 %11, %15
  %17 = getelementptr inbounds nuw [65 x i8], ptr @kwsysBase64EncodeTable, i64 0, i64 %16
  %18 = load i8, ptr %17, align 1, !tbaa !4
  %19 = getelementptr inbounds nuw i8, ptr %1, i64 1
  store i8 %18, ptr %19, align 1, !tbaa !4
  %20 = load i8, ptr %12, align 1, !tbaa !4
  %21 = zext i8 %20 to i64
  %22 = shl nuw nsw i64 %21, 2
  %23 = and i64 %22, 60
  %24 = getelementptr inbounds nuw i8, ptr %0, i64 2
  %25 = load i8, ptr %24, align 1, !tbaa !4
  %26 = lshr i8 %25, 6
  %27 = zext nneg i8 %26 to i64
  %28 = or disjoint i64 %23, %27
  %29 = getelementptr inbounds nuw [65 x i8], ptr @kwsysBase64EncodeTable, i64 0, i64 %28
  %30 = load i8, ptr %29, align 1, !tbaa !4
  %31 = getelementptr inbounds nuw i8, ptr %1, i64 2
  store i8 %30, ptr %31, align 1, !tbaa !4
  %32 = load i8, ptr %24, align 1, !tbaa !4
  %33 = and i8 %32, 63
  %34 = zext nneg i8 %33 to i64
  %35 = getelementptr inbounds nuw [65 x i8], ptr @kwsysBase64EncodeTable, i64 0, i64 %34
  %36 = load i8, ptr %35, align 1, !tbaa !4
  %37 = getelementptr inbounds nuw i8, ptr %1, i64 3
  store i8 %36, ptr %37, align 1, !tbaa !4
  ret void
}